target datalayout = "e-m:e-p270:32:32-p271:32:32-p272:64:64-i64:64-i128:128-f80:128-n8:16:32:64-S128"
target triple = "x86_64-unknown-linux-gnu"

%struct.hdr_histogram = type { i64, i64, i32, i32, i32, i32, i64, i32, i32, i64, i64, i32, double, i32, i64, ptr }

; Function Attrs: nounwind uwtable
define dso_local void @hdr_close(ptr noundef %h) #0 {
entry:
  %h.addr = alloca ptr, align 8
  store ptr %h, ptr %h.addr, align 8
  %0 = load ptr, ptr %h.addr, align 8
  %tobool = icmp ne ptr %0, null
  br i1 %tobool, label %if.then, label %if.end

if.then:                                          ; preds = %entry
  %1 = load ptr, ptr %h.addr, align 8
  %counts = getelementptr inbounds %struct.hdr_histogram, ptr %1, i32 0, i32 15
  %2 = load ptr, ptr %counts, align 8
  call void @zfree(ptr noundef %2)
  %3 = load ptr, ptr %h.addr, align 8
  call void @zfree(ptr noundef %3)
  br label %if.end

if.end:                                           ; preds = %if.then, %entry
  ret void
}