; Function Attrs: nounwind uwtable
define dso_local void @hdr_close(ptr noundef %h) local_unnamed_addr #6 {
entry:
  %tobool.not = icmp eq ptr %h, null
  br i1 %tobool.not, label %if.end, label %if.then

if.then:                                          ; preds = %entry
  %counts = getelementptr inbounds i8, ptr %h, i64 96
  %0 = load ptr, ptr %counts, align 8
  tail call void @zfree(ptr noundef %0) #21
  tail call void @zfree(ptr noundef nonnull %h) #21
  br label %if.end

if.end:                                           ; preds = %if.then, %entry
  ret void
}